target datalayout = "e-m:e-p270:32:32-p271:32:32-p272:64:64-i64:64-i128:128-f80:128-n8:16:32:64-S128"
target triple = "x86_64-unknown-linux-gnu"

%"class.std::__cxx11::basic_string" = type { %"struct.std::__cxx11::basic_string<char>::_Alloc_hider", i64, %union.anon }
%"struct.std::__cxx11::basic_string<char>::_Alloc_hider" = type { ptr }
%union.anon = type { i64, [8 x i8] }
%"struct.folly::Ignore" = type { i8 }

; Function Attrs: mustprogress nounwind uwtable
define linkonce_odr noundef i32 @_ZN5folly6detail12digitsEnoughIoEEjv() #0 comdat {
entry:
  %digits10 = alloca i32, align 4
  store i32 38, ptr %digits10, align 4
  ret i32 39
}

; Function Attrs: mustprogress nounwind uwtable
define linkonce_odr noundef i64 @_ZN5folly6detail22estimateSpaceToReserveINSt7__cxx1112basic_stringIcSt11char_traitsIcESaIcEEEEENSt9enable_ifIXsr12IsSomeStringIT_EE5valueEmE4typeEmPS9_(i64 noundef %sofar, ptr noundef %0) #0 comdat {
entry:
  %sofar.addr = alloca i64, align 8
  %.addr = alloca ptr, align 8
  store i64 %sofar, ptr %sofar.addr, align 8
  store ptr %0, ptr %.addr, align 8
  %1 = load i64, ptr %sofar.addr, align 8
  ret i64 %1
}

; Function Attrs: mustprogress uwtable
define linkonce_odr noundef i64 @_ZN5folly19estimateSpaceNeededIoEENSt9enable_ifIXsr3std7is_sameIT_oEE5valueEmE4typeES2_(i64 noundef %.coerce0, i64 noundef %.coerce1) #1 comdat {
entry:
  %0 = alloca i128, align 16
  %.addr = alloca i128, align 16
  %1 = getelementptr inbounds { i64, i64 }, ptr %0, i32 0, i32 0
  store i64 %.coerce0, ptr %1, align 16
  %2 = getelementptr inbounds { i64, i64 }, ptr %0, i32 0, i32 1
  store i64 %.coerce1, ptr %2, align 8
  %3 = load i128, ptr %0, align 16
  store i128 %3, ptr %.addr, align 16
  %call = call noundef i32 @_ZN5folly6detail12digitsEnoughIoEEjv()
  %conv = zext i32 %call to i64
  ret i64 %conv
}

; Function Attrs: mustprogress nounwind uwtable
define linkonce_odr noundef nonnull align 8 dereferenceable(8) ptr @_ZN5folly6detail15LastElementImplIJoPNSt7__cxx1112basic_stringIcSt11char_traitsIcESaIcEEEEE4callIRKS8_EET_NS_6IgnoreEOSD_(ptr noundef nonnull align 8 dereferenceable(8) %last) #0 comdat align 2 {
entry:
  %last.addr = alloca ptr, align 8
  store ptr %last, ptr %last.addr, align 8
  %0 = load ptr, ptr %last.addr, align 8
  ret ptr %0
}

; Function Attrs: mustprogress nounwind uwtable
define linkonce_odr void @_ZN5folly6IgnoreC2IoEERKT_(ptr noundef nonnull align 1 dereferenceable(1) %this, ptr noundef nonnull align 16 dereferenceable(16) %0) unnamed_addr #0 comdat align 2 {
entry:
  %this.addr = alloca ptr, align 8
  %.addr = alloca ptr, align 8
  store ptr %this, ptr %this.addr, align 8
  store ptr %0, ptr %.addr, align 8
  ret void
}

; Function Attrs: mustprogress uwtable
define linkonce_odr noundef i64 @_ZN5folly6detail22estimateSpaceToReserveIoJPNSt7__cxx1112basic_stringIcSt11char_traitsIcESaIcEEEEEEmmRKT_DpRKT0_(i64 noundef %sofar, ptr noundef nonnull align 16 dereferenceable(16) %v, ptr noundef nonnull align 8 dereferenceable(8) %vs) #1 comdat {
entry:
  %sofar.addr = alloca i64, align 8
  %v.addr = alloca ptr, align 8
  %vs.addr = alloca ptr, align 8
  %coerce = alloca i128, align 16
  store i64 %sofar, ptr %sofar.addr, align 8
  store ptr %v, ptr %v.addr, align 8
  store ptr %vs, ptr %vs.addr, align 8
  %0 = load i64, ptr %sofar.addr, align 8
  %1 = load ptr, ptr %v.addr, align 8
  %2 = load i128, ptr %1, align 16
  store i128 %2, ptr %coerce, align 16
  %3 = getelementptr inbounds { i64, i64 }, ptr %coerce, i32 0, i32 0
  %4 = load i64, ptr %3, align 16
  %5 = getelementptr inbounds { i64, i64 }, ptr %coerce, i32 0, i32 1
  %6 = load i64, ptr %5, align 8
  %call = call noundef i64 @_ZN5folly19estimateSpaceNeededIoEENSt9enable_ifIXsr3std7is_sameIT_oEE5valueEmE4typeES2_(i64 noundef %4, i64 noundef %6)
  %add = add i64 %0, %call
  %7 = load ptr, ptr %vs.addr, align 8
  %8 = load ptr, ptr %7, align 8
  %call1 = call noundef i64 @_ZN5folly6detail22estimateSpaceToReserveINSt7__cxx1112basic_stringIcSt11char_traitsIcESaIcEEEEENSt9enable_ifIXsr12IsSomeStringIT_EE5valueEmE4typeEmPS9_(i64 noundef %add, ptr noundef %8)
  ret i64 %call1
}

; Function Attrs: mustprogress uwtable
define linkonce_odr noundef nonnull align 8 dereferenceable(8) ptr @_ZN5folly6detail14getLastElementIJoPNSt7__cxx1112basic_stringIcSt11char_traitsIcESaIcEEEEEEDTclsr15LastElementImplIDpT_EE4callspfp_EEDpRKS9_(ptr noundef nonnull align 16 dereferenceable(16) %ts, ptr noundef nonnull align 8 dereferenceable(8) %ts1) #1 comdat {
entry:
  %ts.addr = alloca ptr, align 8
  %ts.addr2 = alloca ptr, align 8
  %agg.tmp = alloca %"struct.folly::Ignore", align 1
  store ptr %ts, ptr %ts.addr, align 8
  store ptr %ts1, ptr %ts.addr2, align 8
  %0 = load ptr, ptr %ts.addr, align 8
  call void @_ZN5folly6IgnoreC2IoEERKT_(ptr noundef nonnull align 1 dereferenceable(1) %agg.tmp, ptr noundef nonnull align 16 dereferenceable(16) %0)
  %1 = load ptr, ptr %ts.addr2, align 8
  %call = call noundef nonnull align 8 dereferenceable(8) ptr @_ZN5folly6detail15LastElementImplIJoPNSt7__cxx1112basic_stringIcSt11char_traitsIcESaIcEEEEE4callIRKS8_EET_NS_6IgnoreEOSD_(ptr noundef nonnull align 8 dereferenceable(8) %1)
  ret ptr %call
}

; Function Attrs: mustprogress uwtable
define linkonce_odr void @_ZN5folly8toAppendINSt7__cxx1112basic_stringIcSt11char_traitsIcESaIcEEEEEvoPT_(i64 noundef %value.coerce0, i64 noundef %value.coerce1, ptr noundef %result) #1 comdat {
entry:
  %value = alloca i128, align 16
  %value.addr = alloca i128, align 16
  %result.addr = alloca ptr, align 8
  %buffer = alloca [39 x i8], align 16
  %p = alloca i64, align 8
  %coerce = alloca i128, align 16
  %0 = getelementptr inbounds { i64, i64 }, ptr %value, i32 0, i32 0
  store i64 %value.coerce0, ptr %0, align 16
  %1 = getelementptr inbounds { i64, i64 }, ptr %value, i32 0, i32 1
  store i64 %value.coerce1, ptr %1, align 8
  %value1 = load i128, ptr %value, align 16
  store i128 %value1, ptr %value.addr, align 16
  store ptr %result, ptr %result.addr, align 8
  %arraydecay = getelementptr inbounds [39 x i8], ptr %buffer, i64 0, i64 0
  %arraydecay2 = getelementptr inbounds [39 x i8], ptr %buffer, i64 0, i64 0
  %add.ptr = getelementptr inbounds i8, ptr %arraydecay2, i64 39
  %2 = load i128, ptr %value.addr, align 16
  store i128 %2, ptr %coerce, align 16
  %3 = getelementptr inbounds { i64, i64 }, ptr %coerce, i32 0, i32 0
  %4 = load i64, ptr %3, align 16
  %5 = getelementptr inbounds { i64, i64 }, ptr %coerce, i32 0, i32 1
  %6 = load i64, ptr %5, align 8
  %call = call noundef i64 @_ZN5folly6detail18unsafeTelescope128EPcS1_o(ptr noundef %arraydecay, ptr noundef %add.ptr, i64 noundef %4, i64 noundef %6)
  store i64 %call, ptr %p, align 8
  %7 = load ptr, ptr %result.addr, align 8
  %arraydecay3 = getelementptr inbounds [39 x i8], ptr %buffer, i64 0, i64 0
  %8 = load i64, ptr %p, align 8
  %call4 = call noundef nonnull align 8 dereferenceable(32) ptr @_ZNSt7__cxx1112basic_stringIcSt11char_traitsIcESaIcEE6appendEPKcm(ptr noundef nonnull align 8 dereferenceable(32) %7, ptr noundef %arraydecay3, i64 noundef %8)
  ret void
}

; Function Attrs: mustprogress uwtable
define linkonce_odr void @_ZN5folly6detail15reserveInTargetIJoPNSt7__cxx1112basic_stringIcSt11char_traitsIcESaIcEEEEEEvDpRKT_(ptr noundef nonnull align 16 dereferenceable(16) %vs, ptr noundef nonnull align 8 dereferenceable(8) %vs1) #1 comdat {
entry:
  %vs.addr = alloca ptr, align 8
  %vs.addr2 = alloca ptr, align 8
  store ptr %vs, ptr %vs.addr, align 8
  store ptr %vs1, ptr %vs.addr2, align 8
  %0 = load ptr, ptr %vs.addr, align 8
  %1 = load ptr, ptr %vs.addr2, align 8
  %call = call noundef nonnull align 8 dereferenceable(8) ptr @_ZN5folly6detail14getLastElementIJoPNSt7__cxx1112basic_stringIcSt11char_traitsIcESaIcEEEEEEDTclsr15LastElementImplIDpT_EE4callspfp_EEDpRKS9_(ptr noundef nonnull align 16 dereferenceable(16) %0, ptr noundef nonnull align 8 dereferenceable(8) %1)
  %2 = load ptr, ptr %call, align 8
  %3 = load ptr, ptr %vs.addr, align 8
  %4 = load ptr, ptr %vs.addr2, align 8
  %call3 = call noundef i64 @_ZN5folly6detail22estimateSpaceToReserveIoJPNSt7__cxx1112basic_stringIcSt11char_traitsIcESaIcEEEEEEmmRKT_DpRKT0_(i64 noundef 0, ptr noundef nonnull align 16 dereferenceable(16) %3, ptr noundef nonnull align 8 dereferenceable(8) %4)
  call void @_ZNSt7__cxx1112basic_stringIcSt11char_traitsIcESaIcEE7reserveEm(ptr noundef nonnull align 8 dereferenceable(32) %2, i64 noundef %call3)
  ret void
}

; Function Attrs: mustprogress uwtable
define linkonce_odr void @_ZN5folly11toAppendFitIJoPNSt7__cxx1112basic_stringIcSt11char_traitsIcESaIcEEEEEENSt9enable_ifIXsr12IsSomeStringINSt14remove_pointerINS_6detail11LastElementIJDpRKT_EE4typeEE4typeEEE5valueEvE4typeESF_(ptr noundef nonnull align 16 dereferenceable(16) %vs, ptr noundef nonnull align 8 dereferenceable(8) %vs1) #1 comdat {
entry:
  %vs.addr = alloca ptr, align 8
  %vs.addr2 = alloca ptr, align 8
  %coerce = alloca i128, align 16
  store ptr %vs, ptr %vs.addr, align 8
  store ptr %vs1, ptr %vs.addr2, align 8
  %0 = load ptr, ptr %vs.addr, align 8
  %1 = load ptr, ptr %vs.addr2, align 8
  call void @_ZN5folly6detail15reserveInTargetIJoPNSt7__cxx1112basic_stringIcSt11char_traitsIcESaIcEEEEEEvDpRKT_(ptr noundef nonnull align 16 dereferenceable(16) %0, ptr noundef nonnull align 8 dereferenceable(8) %1)
  %2 = load ptr, ptr %vs.addr, align 8
  %3 = load i128, ptr %2, align 16
  %4 = load ptr, ptr %vs.addr2, align 8
  %5 = load ptr, ptr %4, align 8
  store i128 %3, ptr %coerce, align 16
  %6 = getelementptr inbounds { i64, i64 }, ptr %coerce, i32 0, i32 0
  %7 = load i64, ptr %6, align 16
  %8 = getelementptr inbounds { i64, i64 }, ptr %coerce, i32 0, i32 1
  %9 = load i64, ptr %8, align 8
  call void @_ZN5folly8toAppendINSt7__cxx1112basic_stringIcSt11char_traitsIcESaIcEEEEEvoPT_(i64 noundef %7, i64 noundef %9, ptr noundef %5)
  ret void
}

; Function Attrs: mustprogress uwtable
define linkonce_odr void @_ZN5folly2toINSt7__cxx1112basic_stringIcSt11char_traitsIcESaIcEEEJoEEENSt9enable_ifIXaasr12IsSomeStringIT_EE5valueoonesZT0_Li1Entsr3std7is_sameIS8_NS_6detail11LastElementIJDpRKT0_EE4typeEEE5valueES8_E4typeESE_(ptr noalias sret(%"class.std::__cxx11::basic_string") align 8 %agg.result, ptr noundef nonnull align 16 dereferenceable(16) %vs) #1 comdat personality ptr @__gxx_personality_v0 {
entry:
  %result.ptr = alloca ptr, align 8
  %vs.addr = alloca ptr, align 8
  %nrvo = alloca i1, align 1
  %ref.tmp = alloca ptr, align 8
  %exn.slot = alloca ptr, align 8
  %ehselector.slot = alloca i32, align 4
  store ptr %agg.result, ptr %result.ptr, align 8
  store ptr %vs, ptr %vs.addr, align 8
  store i1 false, ptr %nrvo, align 1
  call void @_ZNSt7__cxx1112basic_stringIcSt11char_traitsIcESaIcEEC1Ev(ptr noundef nonnull align 8 dereferenceable(32) %agg.result) #13
  %0 = load ptr, ptr %vs.addr, align 8
  store ptr %agg.result, ptr %ref.tmp, align 8
  invoke void @_ZN5folly11toAppendFitIJoPNSt7__cxx1112basic_stringIcSt11char_traitsIcESaIcEEEEEENSt9enable_ifIXsr12IsSomeStringINSt14remove_pointerINS_6detail11LastElementIJDpRKT_EE4typeEE4typeEEE5valueEvE4typeESF_(ptr noundef nonnull align 16 dereferenceable(16) %0, ptr noundef nonnull align 8 dereferenceable(8) %ref.tmp)
          to label %invoke.cont unwind label %lpad

invoke.cont:                                      ; preds = %entry
  store i1 true, ptr %nrvo, align 1
  %nrvo.val = load i1, ptr %nrvo, align 1
  br i1 %nrvo.val, label %nrvo.skipdtor, label %nrvo.unused

lpad:                                             ; preds = %entry
  %1 = landingpad { ptr, i32 }
          cleanup
  %2 = extractvalue { ptr, i32 } %1, 0
  store ptr %2, ptr %exn.slot, align 8
  %3 = extractvalue { ptr, i32 } %1, 1
  store i32 %3, ptr %ehselector.slot, align 4
  call void @_ZNSt7__cxx1112basic_stringIcSt11char_traitsIcESaIcEED1Ev(ptr noundef nonnull align 8 dereferenceable(32) %agg.result) #13
  br label %eh.resume

nrvo.unused:                                      ; preds = %invoke.cont
  call void @_ZNSt7__cxx1112basic_stringIcSt11char_traitsIcESaIcEED1Ev(ptr noundef nonnull align 8 dereferenceable(32) %agg.result) #13
  br label %nrvo.skipdtor

nrvo.skipdtor:                                    ; preds = %nrvo.unused, %invoke.cont
  ret void

eh.resume:                                        ; preds = %lpad
  %exn = load ptr, ptr %exn.slot, align 8
  %sel = load i32, ptr %ehselector.slot, align 4
  %lpad.val = insertvalue { ptr, i32 } poison, ptr %exn, 0
  %lpad.val1 = insertvalue { ptr, i32 } %lpad.val, i32 %sel, 1
  resume { ptr, i32 } %lpad.val1
}

; Function Attrs: mustprogress uwtable
define void @_ZN8facebook5velox6crypto10MD5Context14DigestToBase10B5cxx11EPKh(ptr noalias sret(%"class.std::__cxx11::basic_string") align 8 %agg.result, ptr noundef %digest) #1 align 2 {
entry:
  %result.ptr = alloca ptr, align 8
  %digest.addr = alloca ptr, align 8
  %val = alloca i128, align 16
  %i = alloca i32, align 4
  %nrvo = alloca i1, align 1
  %ref.tmp = alloca i128, align 16
  store ptr %agg.result, ptr %result.ptr, align 8
  store ptr %digest, ptr %digest.addr, align 8
  store i128 0, ptr %val, align 16
  store i32 0, ptr %i, align 4
  br label %for.cond

for.cond:                                         ; preds = %for.inc, %entry
  %0 = load i32, ptr %i, align 4
  %conv = sext i32 %0 to i64
  %cmp = icmp ult i64 %conv, 16
  br i1 %cmp, label %for.body, label %for.end

for.body:                                         ; preds = %for.cond
  %1 = load i128, ptr %val, align 16
  %shl = shl i128 %1, 4
  %2 = load ptr, ptr %digest.addr, align 8
  %3 = load i32, ptr %i, align 4
  %idxprom = sext i32 %3 to i64
  %arrayidx = getelementptr inbounds i8, ptr %2, i64 %idxprom
  %4 = load i8, ptr %arrayidx, align 1
  %conv1 = zext i8 %4 to i32
  %shr = ashr i32 %conv1, 4
  %and = and i32 %shr, 15
  %conv2 = sext i32 %and to i128
  %or = or i128 %shl, %conv2
  store i128 %or, ptr %val, align 16
  %5 = load i128, ptr %val, align 16
  %shl3 = shl i128 %5, 4
  %6 = load ptr, ptr %digest.addr, align 8
  %7 = load i32, ptr %i, align 4
  %idxprom4 = sext i32 %7 to i64
  %arrayidx5 = getelementptr inbounds i8, ptr %6, i64 %idxprom4
  %8 = load i8, ptr %arrayidx5, align 1
  %conv6 = zext i8 %8 to i32
  %and7 = and i32 %conv6, 15
  %conv8 = sext i32 %and7 to i128
  %or9 = or i128 %shl3, %conv8
  store i128 %or9, ptr %val, align 16
  br label %for.inc

for.inc:                                          ; preds = %for.body
  %9 = load i32, ptr %i, align 4
  %inc = add nsw i32 %9, 1
  store i32 %inc, ptr %i, align 4
  br label %for.cond, !llvm.loop !8

for.end:                                          ; preds = %for.cond
  store i1 false, ptr %nrvo, align 1
  %10 = load i128, ptr %val, align 16
  store i128 %10, ptr %ref.tmp, align 16
  call void @_ZN5folly2toINSt7__cxx1112basic_stringIcSt11char_traitsIcESaIcEEEJoEEENSt9enable_ifIXaasr12IsSomeStringIT_EE5valueoonesZT0_Li1Entsr3std7is_sameIS8_NS_6detail11LastElementIJDpRKT0_EE4typeEEE5valueES8_E4typeESE_(ptr sret(%"class.std::__cxx11::basic_string") align 8 %agg.result, ptr noundef nonnull align 16 dereferenceable(16) %ref.tmp)
  store i1 true, ptr %nrvo, align 1
  %nrvo.val = load i1, ptr %nrvo, align 1
  br i1 %nrvo.val, label %nrvo.skipdtor, label %nrvo.unused

nrvo.unused:                                      ; preds = %for.end
  call void @_ZNSt7__cxx1112basic_stringIcSt11char_traitsIcESaIcEED1Ev(ptr noundef nonnull align 8 dereferenceable(32) %agg.result) #13
  br label %nrvo.skipdtor

nrvo.skipdtor:                                    ; preds = %nrvo.unused, %for.end
  ret void
}