; Function Attrs: mustprogress uwtable
define void @_ZN8facebook5velox6crypto10MD5Context14DigestToBase10B5cxx11EPKh(ptr noalias sret(%"class.std::__cxx11::basic_string") align 8 %agg.result, ptr nocapture noundef readonly %digest) local_unnamed_addr #6 align 2 personality ptr @__gxx_personality_v0 {
entry:
  %buffer.i.i.i = alloca [39 x i8], align 16
  br label %for.body

for.body:                                         ; preds = %entry, %for.body
  %indvars.iv = phi i64 [ 0, %entry ], [ %indvars.iv.next, %for.body ]
  %val.08 = phi i128 [ 0, %entry ], [ %or9, %for.body ]
  %arrayidx = getelementptr inbounds i8, ptr %digest, i64 %indvars.iv
  %0 = load i8, ptr %arrayidx, align 1
  %1 = shl i128 %val.08, 8
  %2 = zext i8 %0 to i128
  %or9 = or disjoint i128 %1, %2
  %indvars.iv.next = add nuw nsw i64 %indvars.iv, 1
  %exitcond.not = icmp eq i64 %indvars.iv.next, 16
  br i1 %exitcond.not, label %for.end, label %for.body, !llvm.loop !7

for.end:                                          ; preds = %for.body
  tail call void @_ZNSt7__cxx1112basic_stringIcSt11char_traitsIcESaIcEEC1Ev(ptr noundef nonnull align 8 dereferenceable(32) %agg.result) #19
  invoke void @_ZNSt7__cxx1112basic_stringIcSt11char_traitsIcESaIcEE7reserveEm(ptr noundef nonnull align 8 dereferenceable(32) %agg.result, i64 noundef 39)
          to label %.noexc.i unwind label %lpad.i

.noexc.i:                                         ; preds = %for.end
  %coerce.sroa.0.0.extract.trunc.i.i = trunc i128 %or9 to i64
  %coerce.sroa.2.0.extract.shift.i.i = lshr i128 %1, 64
  %coerce.sroa.2.0.extract.trunc.i.i = trunc i128 %coerce.sroa.2.0.extract.shift.i.i to i64
  call void @llvm.lifetime.start.p0(i64 39, ptr nonnull %buffer.i.i.i), !noalias !8
  %add.ptr.i.i.i = getelementptr inbounds i8, ptr %buffer.i.i.i, i64 39
  %call.i.i1.i = invoke noundef i64 @_ZN5folly6detail18unsafeTelescope128EPcS1_o(ptr noundef nonnull %buffer.i.i.i, ptr noundef nonnull %add.ptr.i.i.i, i64 noundef %coerce.sroa.0.0.extract.trunc.i.i, i64 noundef %coerce.sroa.2.0.extract.trunc.i.i)
          to label %call.i.i.noexc.i unwind label %lpad.i

call.i.i.noexc.i:                                 ; preds = %.noexc.i
  %call4.i.i2.i = invoke noundef nonnull align 8 dereferenceable(32) ptr @_ZNSt7__cxx1112basic_stringIcSt11char_traitsIcESaIcEE6appendEPKcm(ptr noundef nonnull align 8 dereferenceable(32) %agg.result, ptr noundef nonnull %buffer.i.i.i, i64 noundef %call.i.i1.i)
          to label %_ZN5folly2toINSt7__cxx1112basic_stringIcSt11char_traitsIcESaIcEEEJoEEENSt9enable_ifIXaasr12IsSomeStringIT_EE5valueoonesZT0_Li1Entsr3std7is_sameIS8_NS_6detail11LastElementIJDpRKT0_EE4typeEEE5valueES8_E4typeESE_.exit unwind label %lpad.i

lpad.i:                                           ; preds = %call.i.i.noexc.i, %.noexc.i, %for.end
  %3 = landingpad { ptr, i32 }
          cleanup
  call void @_ZNSt7__cxx1112basic_stringIcSt11char_traitsIcESaIcEED1Ev(ptr noundef nonnull align 8 dereferenceable(32) %agg.result) #19
  resume { ptr, i32 } %3

_ZN5folly2toINSt7__cxx1112basic_stringIcSt11char_traitsIcESaIcEEEJoEEENSt9enable_ifIXaasr12IsSomeStringIT_EE5valueoonesZT0_Li1Entsr3std7is_sameIS8_NS_6detail11LastElementIJDpRKT0_EE4typeEEE5valueES8_E4typeESE_.exit: ; preds = %call.i.i.noexc.i
  call void @llvm.lifetime.end.p0(i64 39, ptr nonnull %buffer.i.i.i), !noalias !8
  ret void
}